; Function Attrs: mustprogress uwtable
define void @_ZN5boost4urls20segments_encoded_ref6insertENS0_21segments_encoded_base8iteratorENS0_15pct_string_viewE(ptr dead_on_unwind noalias nocapture writable writeonly sret(%"class.boost::urls::segments_encoded_base::iterator") align 8 %0, ptr nocapture noundef nonnull readonly align 8 dereferenceable(48) %1, ptr noundef byval(%"class.boost::urls::segments_encoded_base::iterator") align 8 %2, ptr noundef nonnull byval(%"class.boost::urls::pct_string_view") align 8 %3) local_unnamed_addr #5 align 2 personality ptr @__gxx_personality_v0 {
  %5 = alloca %"struct.boost::urls::detail::segment_encoded_iter", align 8
  %6 = getelementptr inbounds nuw i8, ptr %1, i64 40
  %7 = load ptr, ptr %6, align 8, !tbaa !3
  call void @llvm.lifetime.start.p0(i64 48, ptr nonnull %5) #12
  call void @_ZN5boost4urls6detail20segment_encoded_iterC1ERKNS0_15pct_string_viewE(ptr noundef nonnull align 8 dereferenceable(46) %5, ptr noundef nonnull align 8 dereferenceable(24) %3) #12
  call void @_ZN5boost4urls8url_base13edit_segmentsERKNS0_6detail18segments_iter_implES5_ONS2_17any_segments_iterEi(ptr dead_on_unwind nonnull writable sret(%"struct.boost::urls::detail::segments_iter_impl") align 8 %0, ptr noundef nonnull align 8 dereferenceable(216) %7, ptr noundef nonnull align 8 dereferenceable(104) %2, ptr noundef nonnull align 8 dereferenceable(104) %2, ptr noundef nonnull align 8 dereferenceable(45) %5, i32 noundef -1)
  call void @llvm.lifetime.end.p0(i64 48, ptr nonnull %5) #12
  ret void
}